target datalayout = "e-m:e-p270:32:32-p271:32:32-p272:64:64-i64:64-i128:128-f80:128-n8:16:32:64-S128"
target triple = "x86_64-unknown-linux-gnu"

%"class.std::basic_string_view" = type { i64, ptr }
%"class.facebook::velox::WriteFile" = type { ptr }
%"class.facebook::velox::LocalWriteFile" = type <{ %"class.facebook::velox::WriteFile", ptr, i64, i8, [7 x i8] }>

; Function Attrs: mustprogress nounwind uwtable
define linkonce_odr noundef i64 @_ZNKSt17basic_string_viewIcSt11char_traitsIcEE4sizeEv(ptr noundef nonnull align 8 dereferenceable(16) %this) #3 comdat align 2 {
entry:
  %this.addr = alloca ptr, align 8
  store ptr %this, ptr %this.addr, align 8
  %this1 = load ptr, ptr %this.addr, align 8
  %_M_len = getelementptr inbounds %"class.std::basic_string_view", ptr %this1, i32 0, i32 0
  %0 = load i64, ptr %_M_len, align 8
  ret i64 %0
}

; Function Attrs: mustprogress nounwind uwtable
define linkonce_odr noundef ptr @_ZNKSt17basic_string_viewIcSt11char_traitsIcEE4dataEv(ptr noundef nonnull align 8 dereferenceable(16) %this) #3 comdat align 2 {
entry:
  %this.addr = alloca ptr, align 8
  store ptr %this, ptr %this.addr, align 8
  %this1 = load ptr, ptr %this.addr, align 8
  %_M_str = getelementptr inbounds %"class.std::basic_string_view", ptr %this1, i32 0, i32 1
  %0 = load ptr, ptr %_M_str, align 8
  ret ptr %0
}

; Function Attrs: mustprogress uwtable
define void @_ZN8facebook5velox14LocalWriteFile6appendESt17basic_string_viewIcSt11char_traitsIcEE(ptr noundef nonnull align 8 dereferenceable(32) %this, i64 %data.coerce0, ptr %data.coerce1) unnamed_addr #0 align 2 {
entry:
  %data = alloca %"class.std::basic_string_view", align 8
  %this.addr = alloca ptr, align 8
  %bytesWritten = alloca i64, align 8
  %0 = getelementptr inbounds { i64, ptr }, ptr %data, i32 0, i32 0
  store i64 %data.coerce0, ptr %0, align 8
  %1 = getelementptr inbounds { i64, ptr }, ptr %data, i32 0, i32 1
  store ptr %data.coerce1, ptr %1, align 8
  store ptr %this, ptr %this.addr, align 8
  %this1 = load ptr, ptr %this.addr, align 8
  %closed_ = getelementptr inbounds %"class.facebook::velox::LocalWriteFile", ptr %this1, i32 0, i32 3
  %2 = load i8, ptr %closed_, align 8
  %tobool = trunc i8 %2 to i1
  %lnot = xor i1 %tobool, true
  %lnot2 = xor i1 %lnot, true
  br i1 %lnot2, label %if.then, label %if.end

if.then:                                          ; preds = %entry
  call void @llvm.trap()
  br label %if.end

if.end:                                           ; preds = %if.then, %entry
  %call = call noundef ptr @_ZNKSt17basic_string_viewIcSt11char_traitsIcEE4dataEv(ptr noundef nonnull align 8 dereferenceable(16) %data) #9
  %call3 = call noundef i64 @_ZNKSt17basic_string_viewIcSt11char_traitsIcEE4sizeEv(ptr noundef nonnull align 8 dereferenceable(16) %data) #9
  %file_ = getelementptr inbounds %"class.facebook::velox::LocalWriteFile", ptr %this1, i32 0, i32 1
  %3 = load ptr, ptr %file_, align 8
  %call4 = call i64 @fwrite(ptr noundef %call, i64 noundef 1, i64 noundef %call3, ptr noundef %3)
  store i64 %call4, ptr %bytesWritten, align 8
  %4 = load i64, ptr %bytesWritten, align 8
  %call5 = call noundef i64 @_ZNKSt17basic_string_viewIcSt11char_traitsIcEE4sizeEv(ptr noundef nonnull align 8 dereferenceable(16) %data) #9
  %cmp = icmp eq i64 %4, %call5
  %lnot6 = xor i1 %cmp, true
  br i1 %lnot6, label %if.then7, label %if.end8

if.then7:                                         ; preds = %if.end
  call void @llvm.trap()
  br label %if.end8

if.end8:                                          ; preds = %if.then7, %if.end
  ret void
}