; Function Attrs: mustprogress nounwind uwtable
define void @_ZN8facebook5velox14LocalWriteFile6appendESt17basic_string_viewIcSt11char_traitsIcEE(ptr nocapture noundef nonnull readonly align 8 dereferenceable(32) %this, i64 %data.coerce0, ptr nocapture %data.coerce1) unnamed_addr #6 align 2 {
entry:
  %closed_ = getelementptr inbounds i8, ptr %this, i64 24
  %0 = load i8, ptr %closed_, align 8
  %1 = and i8 %0, 1
  %tobool.not = icmp eq i8 %1, 0
  br i1 %tobool.not, label %if.end, label %if.then

if.then:                                          ; preds = %entry
  tail call void @llvm.trap()
  unreachable

if.end:                                           ; preds = %entry
  %file_ = getelementptr inbounds i8, ptr %this, i64 8
  %2 = load ptr, ptr %file_, align 8
  %call4 = tail call i64 @fwrite(ptr noundef %data.coerce1, i64 noundef 1, i64 noundef %data.coerce0, ptr noundef %2)
  %cmp.not = icmp eq i64 %call4, %data.coerce0
  br i1 %cmp.not, label %if.end8, label %if.then7

if.then7:                                         ; preds = %if.end
  tail call void @llvm.trap()
  unreachable

if.end8:                                          ; preds = %if.end
  ret void
}